; Function Attrs: mustprogress nounwind uwtable
define hidden void @_ZN14PSPromotionLAB5flushEv(ptr nocapture noundef nonnull align 8 dereferenceable(36) %0) unnamed_addr #1 align 2 {
  %2 = getelementptr inbounds i8, ptr %0, i64 32
  %3 = load i32, ptr %2, align 8
  %4 = icmp eq i32 %3, 2
  br i1 %4, label %15, label %5

5:                                                ; preds = %1
  %6 = getelementptr inbounds i8, ptr %0, i64 24
  %7 = load ptr, ptr %6, align 8
  %8 = getelementptr inbounds i8, ptr %7, i64 16
  %9 = getelementptr inbounds i8, ptr %0, i64 8
  %10 = load ptr, ptr %9, align 8
  %11 = ptrtoint ptr %8 to i64
  %12 = ptrtoint ptr %10 to i64
  %13 = sub i64 %11, %12
  %14 = lshr i64 %13, 3
  tail call void @_ZN13CollectedHeap16fill_with_objectEPP12HeapWordImplmb(ptr noundef %10, i64 noundef %14, i1 noundef zeroext false) #5
  tail call void @llvm.memset.p0.i64(ptr noundef nonnull align 8 dereferenceable(24) %9, i8 0, i64 24, i1 false)
  store i32 1, ptr %2, align 8
  br label %15

15:                                               ; preds = %1, %5
  ret void
}